; Function Attrs: inlinehint nounwind memory(readwrite, argmem: write) uwtable
define internal fastcc noalias noundef ptr @Hash_IntManStart(i32 noundef range(i32 -1073741824, 1073741824) %0) unnamed_addr #9 {
  %2 = tail call noalias dereferenceable_or_null(24) ptr @calloc(i64 noundef 1, i64 noundef 24) #29
  %3 = add nsw i32 %0, 99
  br label %.loopexit.i

.loopexit.i:                                      ; preds = %.loopexit.i.backedge, %1
  %.012.i = phi i32 [ %3, %1 ], [ %4, %.loopexit.i.backedge ]
  %4 = add i32 %.012.i, 1
  %5 = and i32 %.012.i, 1
  %.not.not.i = icmp eq i32 %5, 0
  br i1 %.not.not.i, label %.preheader.i, label %.loopexit.i.backedge

.loopexit.i.backedge:                             ; preds = %.lr.ph.i, %.loopexit.i
  br label %.loopexit.i, !llvm.loop !125

.preheader.i:                                     ; preds = %.loopexit.i
  %.not15.i = icmp ult i32 %4, 9
  br i1 %.not15.i, label %Abc_PrimeCudd.exit, label %.lr.ph.i

6:                                                ; preds = %.lr.ph.i
  %7 = add nuw nsw i32 %.01116.i, 2
  %8 = mul nuw nsw i32 %7, %7
  %.not.i = icmp ugt i32 %8, %4
  br i1 %.not.i, label %Abc_PrimeCudd.exit, label %.lr.ph.i, !llvm.loop !126

.lr.ph.i:                                         ; preds = %.preheader.i, %6
  %.01116.i = phi i32 [ %7, %6 ], [ 3, %.preheader.i ]
  %9 = urem i32 %4, %.01116.i
  %10 = icmp eq i32 %9, 0
  br i1 %10, label %.loopexit.i.backedge, label %6, !llvm.loop !125

Abc_PrimeCudd.exit:                               ; preds = %.preheader.i, %6
  %11 = tail call noalias dereferenceable_or_null(16) ptr @malloc(i64 noundef 16) #26
  %or.cond.i.i = icmp ult i32 %.012.i, 15
  %spec.store.select.i.i = select i1 %or.cond.i.i, i32 16, i32 %4
  store i32 %spec.store.select.i.i, ptr %11, align 8, !tbaa !14
  %12 = getelementptr inbounds nuw i8, ptr %11, i64 4
  %13 = sext i32 %spec.store.select.i.i to i64
  %14 = shl nsw i64 %13, 2
  %15 = tail call noalias ptr @malloc(i64 noundef %14) #26
  %16 = getelementptr inbounds nuw i8, ptr %11, i64 8
  store ptr %15, ptr %16, align 8, !tbaa !10
  store i32 %4, ptr %12, align 4, !tbaa !3
  %.not.i7 = icmp eq ptr %15, null
  br i1 %.not.i7, label %Vec_IntStart.exit, label %17

17:                                               ; preds = %Abc_PrimeCudd.exit
  %18 = sext i32 %4 to i64
  %19 = shl nsw i64 %18, 2
  tail call void @llvm.memset.p0.i64(ptr nonnull align 4 %15, i8 0, i64 %19, i1 false)
  br label %Vec_IntStart.exit

Vec_IntStart.exit:                                ; preds = %Abc_PrimeCudd.exit, %17
  store ptr %11, ptr %2, align 8, !tbaa !92
  %20 = shl i32 %0, 2
  %21 = add i32 %20, 400
  %22 = tail call noalias dereferenceable_or_null(16) ptr @malloc(i64 noundef 16) #26
  %23 = add i32 %20, 399
  %or.cond.i = icmp ult i32 %23, 15
  %spec.store.select.i = select i1 %or.cond.i, i32 16, i32 %21
  store i32 %spec.store.select.i, ptr %22, align 8, !tbaa !14
  %.not.i8 = icmp eq i32 %spec.store.select.i, 0
  br i1 %.not.i8, label %.thread, label %Vec_IntAlloc.exit

.thread:                                          ; preds = %Vec_IntStart.exit
  %24 = getelementptr inbounds nuw i8, ptr %22, i64 8
  store ptr null, ptr %24, align 8, !tbaa !10
  %25 = getelementptr inbounds nuw i8, ptr %2, i64 8
  store ptr %22, ptr %25, align 8, !tbaa !90
  br label %34

Vec_IntAlloc.exit:                                ; preds = %Vec_IntStart.exit
  %26 = sext i32 %spec.store.select.i to i64
  %27 = shl nsw i64 %26, 2
  %28 = tail call noalias ptr @malloc(i64 noundef %27) #26
  %29 = getelementptr inbounds nuw i8, ptr %22, i64 8
  store ptr %28, ptr %29, align 8, !tbaa !10
  %30 = getelementptr inbounds nuw i8, ptr %2, i64 8
  store ptr %22, ptr %30, align 8, !tbaa !90
  %.not.i.i9 = icmp slt i32 %spec.store.select.i, 4
  br i1 %.not.i.i9, label %31, label %Vec_IntFill.exit

31:                                               ; preds = %Vec_IntAlloc.exit
  %.not9.i.i = icmp eq ptr %28, null
  br i1 %.not9.i.i, label %34, label %32

32:                                               ; preds = %31
  %33 = tail call dereferenceable_or_null(16) ptr @realloc(ptr noundef nonnull %28, i64 noundef 16) #25
  br label %37

34:                                               ; preds = %.thread, %31
  %35 = phi ptr [ %24, %.thread ], [ %29, %31 ]
  %36 = tail call noalias dereferenceable_or_null(16) ptr @malloc(i64 noundef 16) #26
  br label %37

37:                                               ; preds = %34, %32
  %38 = phi ptr [ %29, %32 ], [ %35, %34 ]
  %39 = phi ptr [ %33, %32 ], [ %36, %34 ]
  store ptr %39, ptr %38, align 8, !tbaa !10
  store i32 4, ptr %22, align 8, !tbaa !14
  br label %Vec_IntFill.exit

Vec_IntFill.exit:                                 ; preds = %Vec_IntAlloc.exit, %37
  %40 = phi ptr [ %28, %Vec_IntAlloc.exit ], [ %39, %37 ]
  %41 = getelementptr inbounds nuw i8, ptr %22, i64 4
  tail call void @llvm.memset.p0.i64(ptr noundef nonnull align 4 dereferenceable(16) %40, i8 0, i64 16, i1 false), !tbaa !11
  store i32 4, ptr %41, align 4, !tbaa !3
  %42 = getelementptr inbounds nuw i8, ptr %2, i64 16
  store i32 1, ptr %42, align 8, !tbaa !127
  ret ptr %2
}